; Function Attrs: mustprogress uwtable
define hidden noundef ptr @_ZN12re2automatonclEP4expr(ptr noundef nonnull align 8 dereferenceable(176) %0, ptr noundef %1) local_unnamed_addr #3 align 2 personality ptr @__gxx_personality_v0 {
  %3 = alloca %class.bool_rewriter, align 8
  %4 = alloca %class.params_ref, align 8
  %5 = tail call noundef ptr @_ZN12re2automaton6re2autEP4expr(ptr noundef nonnull align 8 dereferenceable(176) %0, ptr noundef %1)
  %.not = icmp eq ptr %5, null
  br i1 %.not, label %44, label %6

6:                                                ; preds = %2
  tail call void @_ZN9automatonI8sym_expr16sym_expr_managerE8compressEv(ptr noundef nonnull align 8 dereferenceable(80) %5)
  call void @llvm.lifetime.start.p0(i64 72, ptr nonnull %3) #28
  %7 = load ptr, ptr %0, align 8, !tbaa !109
  call void @llvm.lifetime.start.p0(i64 8, ptr nonnull %4) #28
  store ptr null, ptr %4, align 8, !tbaa !188
  store ptr %7, ptr %3, align 8, !tbaa !12
  %8 = getelementptr inbounds nuw i8, ptr %3, i64 8
  store i8 0, ptr %8, align 8, !tbaa !191
  %9 = getelementptr inbounds nuw i8, ptr %3, i64 9
  store i8 1, ptr %9, align 1, !tbaa !193
  %10 = getelementptr inbounds nuw i8, ptr %3, i64 10
  %11 = getelementptr inbounds nuw i8, ptr %3, i64 28
  store i32 0, ptr %11, align 4, !tbaa !194
  %12 = getelementptr inbounds nuw i8, ptr %3, i64 40
  store i32 0, ptr %10, align 2
  call void @llvm.memset.p0.i64(ptr noundef nonnull align 8 dereferenceable(32) %12, i8 0, i64 32, i1 false)
  invoke void @_ZN13bool_rewriter11updt_paramsERK10params_ref(ptr noundef nonnull align 8 dereferenceable(72) %3, ptr noundef nonnull align 8 dereferenceable(8) %4)
          to label %_ZN13bool_rewriterC2ER11ast_managerRK10params_ref.exit unwind label %.body

.body:                                            ; preds = %6
  %13 = landingpad { ptr, i32 }
          cleanup
  %14 = getelementptr inbounds nuw i8, ptr %3, i64 64
  %15 = getelementptr inbounds nuw i8, ptr %3, i64 56
  %16 = getelementptr inbounds nuw i8, ptr %3, i64 48
  call void @_ZN6vectorIjLb0EjED2Ev(ptr noundef nonnull align 8 dereferenceable(8) %14) #28
  call void @_ZN6vectorIjLb0EjED2Ev(ptr noundef nonnull align 8 dereferenceable(8) %15) #28
  call void @_ZN6vectorIP4exprLb0EjED2Ev(ptr noundef nonnull align 8 dereferenceable(8) %16) #28
  call void @_ZN6vectorIP4exprLb0EjED2Ev(ptr noundef nonnull align 8 dereferenceable(8) %12) #28
  call void @_ZN10params_refD1Ev(ptr noundef nonnull align 8 dereferenceable(8) %4) #28
  call void @llvm.lifetime.end.p0(i64 8, ptr nonnull %4) #28
  call void @llvm.lifetime.end.p0(i64 72, ptr nonnull %3) #28
  resume { ptr, i32 } %13

_ZN13bool_rewriterC2ER11ast_managerRK10params_ref.exit: ; preds = %6
  call void @_ZN10params_refD1Ev(ptr noundef nonnull align 8 dereferenceable(8) %4) #28
  call void @llvm.lifetime.end.p0(i64 8, ptr nonnull %4) #28
  %17 = getelementptr inbounds nuw i8, ptr %3, i64 64
  %18 = load ptr, ptr %17, align 8, !tbaa !146
  %.not.i.i.i = icmp eq ptr %18, null
  br i1 %.not.i.i.i, label %_ZN6vectorIjLb0EjED2Ev.exit.i, label %19

19:                                               ; preds = %_ZN13bool_rewriterC2ER11ast_managerRK10params_ref.exit
  %20 = getelementptr inbounds i8, ptr %18, i64 -8
  invoke void @_ZN6memory10deallocateEPv(ptr noundef nonnull %20)
          to label %_ZN6vectorIjLb0EjED2Ev.exit.i unwind label %21

21:                                               ; preds = %19
  %22 = landingpad { ptr, i32 }
          catch ptr null
  %23 = extractvalue { ptr, i32 } %22, 0
  call void @__clang_call_terminate(ptr %23) #29
  unreachable

_ZN6vectorIjLb0EjED2Ev.exit.i:                    ; preds = %19, %_ZN13bool_rewriterC2ER11ast_managerRK10params_ref.exit
  %24 = getelementptr inbounds nuw i8, ptr %3, i64 56
  %25 = load ptr, ptr %24, align 8, !tbaa !146
  %.not.i.i1.i = icmp eq ptr %25, null
  br i1 %.not.i.i1.i, label %_ZN6vectorIjLb0EjED2Ev.exit2.i, label %26

26:                                               ; preds = %_ZN6vectorIjLb0EjED2Ev.exit.i
  %27 = getelementptr inbounds i8, ptr %25, i64 -8
  invoke void @_ZN6memory10deallocateEPv(ptr noundef nonnull %27)
          to label %_ZN6vectorIjLb0EjED2Ev.exit2.i unwind label %28

28:                                               ; preds = %26
  %29 = landingpad { ptr, i32 }
          catch ptr null
  %30 = extractvalue { ptr, i32 } %29, 0
  call void @__clang_call_terminate(ptr %30) #29
  unreachable

_ZN6vectorIjLb0EjED2Ev.exit2.i:                   ; preds = %26, %_ZN6vectorIjLb0EjED2Ev.exit.i
  %31 = getelementptr inbounds nuw i8, ptr %3, i64 48
  %32 = load ptr, ptr %31, align 8, !tbaa !89
  %.not.i.i3.i = icmp eq ptr %32, null
  br i1 %.not.i.i3.i, label %_ZN6vectorIP4exprLb0EjED2Ev.exit.i, label %33

33:                                               ; preds = %_ZN6vectorIjLb0EjED2Ev.exit2.i
  %34 = getelementptr inbounds i8, ptr %32, i64 -8
  invoke void @_ZN6memory10deallocateEPv(ptr noundef nonnull %34)
          to label %_ZN6vectorIP4exprLb0EjED2Ev.exit.i unwind label %35

35:                                               ; preds = %33
  %36 = landingpad { ptr, i32 }
          catch ptr null
  %37 = extractvalue { ptr, i32 } %36, 0
  call void @__clang_call_terminate(ptr %37) #29
  unreachable

_ZN6vectorIP4exprLb0EjED2Ev.exit.i:               ; preds = %33, %_ZN6vectorIjLb0EjED2Ev.exit2.i
  %38 = load ptr, ptr %12, align 8, !tbaa !89
  %.not.i.i4.i = icmp eq ptr %38, null
  br i1 %.not.i.i4.i, label %_ZN13bool_rewriterD2Ev.exit, label %39

39:                                               ; preds = %_ZN6vectorIP4exprLb0EjED2Ev.exit.i
  %40 = getelementptr inbounds i8, ptr %38, i64 -8
  invoke void @_ZN6memory10deallocateEPv(ptr noundef nonnull %40)
          to label %_ZN13bool_rewriterD2Ev.exit unwind label %41

41:                                               ; preds = %39
  %42 = landingpad { ptr, i32 }
          catch ptr null
  %43 = extractvalue { ptr, i32 } %42, 0
  call void @__clang_call_terminate(ptr %43) #29
  unreachable

_ZN13bool_rewriterD2Ev.exit:                      ; preds = %_ZN6vectorIP4exprLb0EjED2Ev.exit.i, %39
  call void @llvm.lifetime.end.p0(i64 72, ptr nonnull %3) #28
  br label %44

44:                                               ; preds = %_ZN13bool_rewriterD2Ev.exit, %2
  ret ptr %5
}